S'gAJ9cQAoVQRiZXRhcQFVHjA6U0d0NUxqYXVINVpONm4rczdSVXBJRXJmMTVZPXECVQhnMl9hbHBoYXEDVVoyOk1PR1NGVTlQTldNdGlVUGRRRitNdEJ4Mm5JVWtiU2ExV210R3AxVDIzTmw2MnFpOFBxalk4dDhhdlQ3N0hrd0xpZ2pYTjB2VHIyZXZyQ0w5MTd2WXNnQT1xBHUu'
p0
.