S'gAJ9cQAoVQRiZXRhcQFVHjA6UWpGSWhNblN4RkJkdHFHLzlTQXQrR2twa2VFPXECVQhnMl9hbHBoYXEDVVoyOlk3WHFBLzFleFB6ckpMa3M5NHJ0VXAweHk5ZENFQ0JCUlkybm1IQmpzdnlTbjVHWS9vYjQzRnRST1l1T01hQWZ2alAydlVPcldSV25CeFIwTkhNKzdBQT1xBHUu'
p0
.